; Function Attrs: nounwind uwtable
define noalias ptr @BIO_ADDR_path_string(ptr noundef %0) local_unnamed_addr #0 {
  %2 = load i16, ptr %0, align 4, !tbaa !3
  %3 = icmp eq i16 %2, 1
  br i1 %3, label %4, label %7

4:                                                ; preds = %1
  %5 = getelementptr inbounds nuw i8, ptr %0, i64 2
  %6 = tail call noalias ptr @CRYPTO_strdup(ptr noundef nonnull %5, ptr noundef nonnull @.str, i32 noundef 325) #15
  br label %7

7:                                                ; preds = %1, %4
  %.0 = phi ptr [ %6, %4 ], [ null, %1 ]
  ret ptr %.0
}